target datalayout = "e-m:e-p270:32:32-p271:32:32-p272:64:64-i64:64-i128:128-f80:128-n8:16:32:64-S128"
target triple = "x86_64-pc-linux-gnu"

; Function Attrs: nounwind uwtable
define hidden ptr @EVP_get_cipherbynid(i32 noundef %0) #0 {
  %2 = alloca ptr, align 8
  %3 = alloca i32, align 4
  store i32 %0, ptr %3, align 4, !tbaa !6
  %4 = load i32, ptr %3, align 4, !tbaa !6
  switch i32 %4, label %19 [
    i32 37, label %5
    i32 98, label %7
    i32 44, label %9
    i32 43, label %11
    i32 419, label %13
    i32 423, label %15
    i32 427, label %17
  ]

5:                                                ; preds = %1
  %6 = call ptr @EVP_rc2_cbc()
  store ptr %6, ptr %2, align 8
  br label %20

7:                                                ; preds = %1
  %8 = call ptr @EVP_rc2_40_cbc()
  store ptr %8, ptr %2, align 8
  br label %20

9:                                                ; preds = %1
  %10 = call ptr @EVP_des_ede3_cbc()
  store ptr %10, ptr %2, align 8
  br label %20

11:                                               ; preds = %1
  %12 = call ptr @EVP_des_cbc()
  store ptr %12, ptr %2, align 8
  br label %20

13:                                               ; preds = %1
  %14 = call ptr @EVP_aes_128_cbc()
  store ptr %14, ptr %2, align 8
  br label %20

15:                                               ; preds = %1
  %16 = call ptr @EVP_aes_192_cbc()
  store ptr %16, ptr %2, align 8
  br label %20

17:                                               ; preds = %1
  %18 = call ptr @EVP_aes_256_cbc()
  store ptr %18, ptr %2, align 8
  br label %20

19:                                               ; preds = %1
  store ptr null, ptr %2, align 8
  br label %20

20:                                               ; preds = %19, %17, %15, %13, %11, %9, %7, %5
  %21 = load ptr, ptr %2, align 8
  ret ptr %21
}