; Function Attrs: nounwind uwtable
define hidden ptr @EVP_get_cipherbynid(i32 noundef %0) local_unnamed_addr #0 {
  switch i32 %0, label %16 [
    i32 37, label %2
    i32 98, label %4
    i32 44, label %6
    i32 43, label %8
    i32 419, label %10
    i32 423, label %12
    i32 427, label %14
  ]

2:                                                ; preds = %1
  %3 = tail call ptr @EVP_rc2_cbc() #14
  br label %16

4:                                                ; preds = %1
  %5 = tail call ptr @EVP_rc2_40_cbc() #14
  br label %16

6:                                                ; preds = %1
  %7 = tail call ptr @EVP_des_ede3_cbc() #14
  br label %16

8:                                                ; preds = %1
  %9 = tail call ptr @EVP_des_cbc() #14
  br label %16

10:                                               ; preds = %1
  %11 = tail call ptr @EVP_aes_128_cbc() #14
  br label %16

12:                                               ; preds = %1
  %13 = tail call ptr @EVP_aes_192_cbc() #14
  br label %16

14:                                               ; preds = %1
  %15 = tail call ptr @EVP_aes_256_cbc() #14
  br label %16

16:                                               ; preds = %1, %14, %12, %10, %8, %6, %4, %2
  %.0 = phi ptr [ %15, %14 ], [ %13, %12 ], [ %11, %10 ], [ %9, %8 ], [ %7, %6 ], [ %5, %4 ], [ %3, %2 ], [ null, %1 ]
  ret ptr %.0
}